; Function Attrs: nounwind uwtable
define internal noundef i32 @read_close(ptr noundef readonly captures(none) %0) #1 {
  %2 = alloca ptr, align 8
  %3 = getelementptr inbounds nuw i8, ptr %0, i64 24
  %4 = load ptr, ptr %3, align 8, !tbaa !11
  %5 = getelementptr inbounds nuw i8, ptr %4, i64 32
  tail call void @av_freep(ptr noundef nonnull %5) #11
  %6 = load ptr, ptr %4, align 8, !tbaa !32
  call void @llvm.lifetime.start.p0(i64 8, ptr nonnull %2)
  store ptr %6, ptr %2, align 8, !tbaa !33
  %7 = getelementptr inbounds nuw i8, ptr %6, i64 40
  %8 = load ptr, ptr %7, align 8, !tbaa !34
  %9 = getelementptr inbounds nuw i8, ptr %8, i64 16
  tail call void @av_freep(ptr noundef nonnull %9) #11
  tail call void @av_freep(ptr noundef nonnull %7) #11
  %10 = getelementptr inbounds nuw i8, ptr %6, i64 8
  tail call void @av_freep(ptr noundef nonnull %10) #11
  call void @avio_context_free(ptr noundef nonnull %2) #11
  call void @llvm.lifetime.end.p0(i64 8, ptr nonnull %2)
  ret i32 0
}